target datalayout = "e-m:e-p270:32:32-p271:32:32-p272:64:64-i64:64-i128:128-f80:128-n8:16:32:64-S128"
target triple = "x86_64-pc-linux-gnu"

%struct.Vec_Int_t_ = type { i32, i32, ptr }

@.str = private unnamed_addr constant [13 x i8] c"Constant %d\0A\00", align 1
@.str.1 = private unnamed_addr constant [2 x i8] c"0\00", align 1
@.str.2 = private unnamed_addr constant [2 x i8] c"1\00", align 1
@.str.3 = private unnamed_addr constant [2 x i8] c"-\00", align 1
@.str.4 = private unnamed_addr constant [5 x i8] c" %d\0A\00", align 1

; Function Attrs: nounwind uwtable
define internal i32 @Vec_IntEntry(ptr noundef %0, i32 noundef %1) #0 {
  %3 = alloca ptr, align 8
  %4 = alloca i32, align 4
  store ptr %0, ptr %3, align 8
  store i32 %1, ptr %4, align 4
  %5 = load ptr, ptr %3, align 8
  %6 = getelementptr inbounds %struct.Vec_Int_t_, ptr %5, i32 0, i32 2
  %7 = load ptr, ptr %6, align 8
  %8 = load i32, ptr %4, align 4
  %9 = sext i32 %8 to i64
  %10 = getelementptr inbounds i32, ptr %7, i64 %9
  %11 = load i32, ptr %10, align 4
  ret i32 %11
}

; Function Attrs: nounwind uwtable
define internal i32 @Vec_IntSize(ptr noundef %0) #0 {
  %2 = alloca ptr, align 8
  store ptr %0, ptr %2, align 8
  %3 = load ptr, ptr %2, align 8
  %4 = getelementptr inbounds %struct.Vec_Int_t_, ptr %3, i32 0, i32 1
  %5 = load i32, ptr %4, align 4
  ret i32 %5
}

; Function Attrs: nounwind uwtable
define void @Kit_TruthIsopPrintCover(ptr noundef %0, i32 noundef %1, i32 noundef %2) #0 {
  %4 = alloca ptr, align 8
  %5 = alloca i32, align 4
  %6 = alloca i32, align 4
  %7 = alloca i32, align 4
  %8 = alloca i32, align 4
  %9 = alloca i32, align 4
  %10 = alloca i32, align 4
  store ptr %0, ptr %4, align 8
  store i32 %1, ptr %5, align 4
  store i32 %2, ptr %6, align 4
  %11 = load ptr, ptr %4, align 8
  %12 = call i32 @Vec_IntSize(ptr noundef %11)
  %13 = icmp eq i32 %12, 0
  br i1 %13, label %22, label %14

14:                                               ; preds = %3
  %15 = load ptr, ptr %4, align 8
  %16 = call i32 @Vec_IntSize(ptr noundef %15)
  %17 = icmp eq i32 %16, 1
  br i1 %17, label %18, label %26

18:                                               ; preds = %14
  %19 = load ptr, ptr %4, align 8
  %20 = call i32 @Vec_IntEntry(ptr noundef %19, i32 noundef 0)
  %21 = icmp eq i32 %20, 0
  br i1 %21, label %22, label %26

22:                                               ; preds = %18, %3
  %23 = load ptr, ptr %4, align 8
  %24 = call i32 @Vec_IntSize(ptr noundef %23)
  %25 = call i32 (ptr, ...) @printf(ptr noundef @.str, i32 noundef %24)
  br label %79

26:                                               ; preds = %18, %14
  store i32 0, ptr %7, align 4
  br label %27

27:                                               ; preds = %76, %26
  %28 = load i32, ptr %7, align 4
  %29 = load ptr, ptr %4, align 8
  %30 = call i32 @Vec_IntSize(ptr noundef %29)
  %31 = icmp slt i32 %28, %30
  br i1 %31, label %32, label %36

32:                                               ; preds = %27
  %33 = load ptr, ptr %4, align 8
  %34 = load i32, ptr %7, align 4
  %35 = call i32 @Vec_IntEntry(ptr noundef %33, i32 noundef %34)
  store i32 %35, ptr %9, align 4
  br label %36

36:                                               ; preds = %32, %27
  %37 = phi i1 [ false, %27 ], [ true, %32 ]
  br i1 %37, label %38, label %79

38:                                               ; preds = %36
  store i32 0, ptr %8, align 4
  br label %39

39:                                               ; preds = %67, %38
  %40 = load i32, ptr %8, align 4
  %41 = load i32, ptr %5, align 4
  %42 = icmp slt i32 %40, %41
  br i1 %42, label %43, label %70

43:                                               ; preds = %39
  %44 = load i32, ptr %9, align 4
  %45 = load i32, ptr %8, align 4
  %46 = shl i32 %45, 1
  %47 = ashr i32 %44, %46
  %48 = and i32 3, %47
  store i32 %48, ptr %10, align 4
  %49 = load i32, ptr %10, align 4
  %50 = icmp eq i32 %49, 1
  br i1 %50, label %51, label %53

51:                                               ; preds = %43
  %52 = call i32 (ptr, ...) @printf(ptr noundef @.str.1)
  br label %66

53:                                               ; preds = %43
  %54 = load i32, ptr %10, align 4
  %55 = icmp eq i32 %54, 2
  br i1 %55, label %56, label %58

56:                                               ; preds = %53
  %57 = call i32 (ptr, ...) @printf(ptr noundef @.str.2)
  br label %65

58:                                               ; preds = %53
  %59 = load i32, ptr %10, align 4
  %60 = icmp eq i32 %59, 0
  br i1 %60, label %61, label %63

61:                                               ; preds = %58
  %62 = call i32 (ptr, ...) @printf(ptr noundef @.str.3)
  br label %64

63:                                               ; preds = %58
  br label %64

64:                                               ; preds = %63, %61
  br label %65

65:                                               ; preds = %64, %56
  br label %66

66:                                               ; preds = %65, %51
  br label %67

67:                                               ; preds = %66
  %68 = load i32, ptr %8, align 4
  %69 = add nsw i32 %68, 1
  store i32 %69, ptr %8, align 4
  br label %39, !llvm.loop !13

70:                                               ; preds = %39
  %71 = load i32, ptr %6, align 4
  %72 = icmp ne i32 %71, 0
  %73 = xor i1 %72, true
  %74 = zext i1 %73 to i32
  %75 = call i32 (ptr, ...) @printf(ptr noundef @.str.4, i32 noundef %74)
  br label %76

76:                                               ; preds = %70
  %77 = load i32, ptr %7, align 4
  %78 = add nsw i32 %77, 1
  store i32 %78, ptr %7, align 4
  br label %27, !llvm.loop !14

79:                                               ; preds = %36, %22
  ret void
}